target datalayout = "e-m:e-p270:32:32-p271:32:32-p272:64:64-i64:64-i128:128-f80:128-n8:16:32:64-S128"
target triple = "x86_64-unknown-linux-gnu"

; Function Attrs: mustprogress nounwind uwtable
define internal noundef i32 @_ZN12_GLOBAL__N_129uprops_mergeScriptCodeOrIndexEj(i32 noundef %scriptX) #2 {
entry:
  %scriptX.addr = alloca i32, align 4
  store i32 %scriptX, ptr %scriptX.addr, align 4
  %0 = load i32, ptr %scriptX.addr, align 4
  %and = and i32 %0, 3145728
  %shr = lshr i32 %and, 12
  %1 = load i32, ptr %scriptX.addr, align 4
  %and1 = and i32 %1, 255
  %or = or i32 %shr, %and1
  ret i32 %or
}

; Function Attrs: mustprogress uwtable
define internal noundef i32 @_ZL17scriptGetMaxValueRK11IntProperty9UProperty(ptr noundef nonnull align 8 dereferenceable(32) %0, i32 noundef %1) #0 {
entry:
  %.addr = alloca ptr, align 8
  %.addr1 = alloca i32, align 4
  %scriptX = alloca i32, align 4
  store ptr %0, ptr %.addr, align 8
  store i32 %1, ptr %.addr1, align 4
  %call = call i32 @uprv_getMaxValues_75(i32 noundef 0)
  %and = and i32 %call, 15728895
  store i32 %and, ptr %scriptX, align 4
  %2 = load i32, ptr %scriptX, align 4
  %call2 = call noundef i32 @_ZN12_GLOBAL__N_129uprops_mergeScriptCodeOrIndexEj(i32 noundef %2)
  ret i32 %call2
}