; Function Attrs: mustprogress uwtable
define internal noundef i32 @_ZL17scriptGetMaxValueRK11IntProperty9UProperty(ptr nocapture nonnull readnone align 8 %0, i32 %1) #0 {
entry:
  %call = tail call i32 @uprv_getMaxValues_75(i32 noundef 0)
  %and.i = lshr i32 %call, 12
  %shr.i = and i32 %and.i, 768
  %and1.i = and i32 %call, 255
  %or.i = or disjoint i32 %shr.i, %and1.i
  ret i32 %or.i
}